; Function Attrs: mustprogress uwtable
define void @_ZNK6icu_756number15FormattedNumber15toDecimalNumberERNS_8ByteSinkER10UErrorCode(ptr nocapture noundef nonnull readonly align 8 dereferenceable(20) %this, ptr noundef nonnull align 8 dereferenceable(8) %sink, ptr noundef nonnull align 4 dereferenceable(4) %status) local_unnamed_addr #1 align 2 personality ptr @__gxx_personality_v0 {
entry:
  %decnum = alloca %"class.icu_75::number::impl::DecNum", align 8
  %0 = load i32, ptr %status, align 4
  %cmp.i = icmp slt i32 %0, 1
  br i1 %cmp.i, label %if.end, label %return

if.end:                                           ; preds = %entry
  %fData = getelementptr inbounds i8, ptr %this, i64 8
  %1 = load ptr, ptr %fData, align 8
  %cmp = icmp eq ptr %1, null
  br i1 %cmp, label %if.then2, label %if.end3

if.then2:                                         ; preds = %if.end
  %fErrorCode = getelementptr inbounds i8, ptr %this, i64 16
  %2 = load i32, ptr %fErrorCode, align 8
  store i32 %2, ptr %status, align 4
  br label %return

if.end3:                                          ; preds = %if.end
  call void @_ZN6icu_756number4impl6DecNumC1Ev(ptr noundef nonnull align 8 dereferenceable(92) %decnum)
  %3 = load ptr, ptr %fData, align 8
  %quantity = getelementptr inbounds i8, ptr %3, i64 304
  %call5 = invoke noundef nonnull align 8 dereferenceable(92) ptr @_ZNK6icu_756number4impl15DecimalQuantity8toDecNumERNS1_6DecNumER10UErrorCode(ptr noundef nonnull align 8 dereferenceable(66) %quantity, ptr noundef nonnull align 8 dereferenceable(92) %decnum, ptr noundef nonnull align 4 dereferenceable(4) %status)
          to label %invoke.cont unwind label %lpad

invoke.cont:                                      ; preds = %if.end3
  invoke void @_ZNK6icu_756number4impl6DecNum8toStringERNS_8ByteSinkER10UErrorCode(ptr noundef nonnull align 8 dereferenceable(92) %decnum, ptr noundef nonnull align 8 dereferenceable(8) %sink, ptr noundef nonnull align 4 dereferenceable(4) %status)
          to label %invoke.cont6 unwind label %lpad

invoke.cont6:                                     ; preds = %invoke.cont
  %needToRelease.i.i.i = getelementptr inbounds i8, ptr %decnum, i64 12
  %4 = load i8, ptr %needToRelease.i.i.i, align 4
  %tobool.not.i.i.i = icmp eq i8 %4, 0
  br i1 %tobool.not.i.i.i, label %return, label %if.then.i.i.i

if.then.i.i.i:                                    ; preds = %invoke.cont6
  %5 = load ptr, ptr %decnum, align 8
  invoke void @uprv_free_75(ptr noundef %5)
          to label %return unwind label %terminate.lpad.i.i

terminate.lpad.i.i:                               ; preds = %if.then.i.i.i
  %6 = landingpad { ptr, i32 }
          catch ptr null
  %7 = extractvalue { ptr, i32 } %6, 0
  call void @__clang_call_terminate(ptr %7) #12
  unreachable

return:                                           ; preds = %if.then.i.i.i, %invoke.cont6, %entry, %if.then2
  ret void

lpad:                                             ; preds = %invoke.cont, %if.end3
  %8 = landingpad { ptr, i32 }
          cleanup
  call void @_ZN6icu_756number4impl6DecNumD2Ev(ptr noundef nonnull align 8 dereferenceable(92) %decnum) #10
  resume { ptr, i32 } %8
}